; ModuleID = '20/622.c'
source_filename = "20/622.c"
target datalayout = "e-m:e-p270:32:32-p271:32:32-p272:64:64-i64:64-f80:128-n8:16:32:64-S128"
target triple = "x86_64-pc-linux-gnu"

@.str = private unnamed_addr constant [3 x i8] c"%s\00", align 1
@.str.1 = private unnamed_addr constant [3 x i8] c"%c\00", align 1
@.str.2 = private unnamed_addr constant [2 x i8] c"\0A\00", align 1

; Function Attrs: noinline nounwind uwtable
define dso_local void @main() #0 {
  %1 = alloca [10 x i8], align 1
  %2 = alloca [10 x i8], align 1
  %3 = alloca i8, align 1
  %4 = alloca i32, align 4
  %5 = alloca i32, align 4
  br label %6

6:                                                ; preds = %76, %0
  %7 = getelementptr inbounds [10 x i8], [10 x i8]* %1, i64 0, i64 0
  %8 = call i32 (i8*, ...) @__isoc99_scanf(i8* getelementptr inbounds ([3 x i8], [3 x i8]* @.str, i64 0, i64 0), i8* %7)
  %9 = icmp ne i32 %8, -1
  br i1 %9, label %10, label %78

10:                                               ; preds = %6
  %11 = getelementptr inbounds [10 x i8], [10 x i8]* %2, i64 0, i64 0
  %12 = call i32 (i8*, ...) @__isoc99_scanf(i8* getelementptr inbounds ([3 x i8], [3 x i8]* @.str, i64 0, i64 0), i8* %11)
  %13 = getelementptr inbounds [10 x i8], [10 x i8]* %1, i64 0, i64 0
  %14 = load i8, i8* %13, align 1
  store i8 %14, i8* %3, align 1
  store i32 0, i32* %5, align 4
  store i32 1, i32* %4, align 4
  br label %15

15:                                               ; preds = %37, %10
  %16 = load i32, i32* %4, align 4
  %17 = sext i32 %16 to i64
  %18 = getelementptr inbounds [10 x i8], [10 x i8]* %1, i64 0, i64 0
  %19 = call i64 @strlen(i8* %18) #3
  %20 = icmp ult i64 %17, %19
  br i1 %20, label %21, label %40

21:                                               ; preds = %15
  %22 = load i32, i32* %4, align 4
  %23 = sext i32 %22 to i64
  %24 = getelementptr inbounds [10 x i8], [10 x i8]* %1, i64 0, i64 %23
  %25 = load i8, i8* %24, align 1
  %26 = sext i8 %25 to i32
  %27 = load i8, i8* %3, align 1
  %28 = sext i8 %27 to i32
  %29 = icmp sgt i32 %26, %28
  br i1 %29, label %30, label %36

30:                                               ; preds = %21
  %31 = load i32, i32* %4, align 4
  %32 = sext i32 %31 to i64
  %33 = getelementptr inbounds [10 x i8], [10 x i8]* %1, i64 0, i64 %32
  %34 = load i8, i8* %33, align 1
  store i8 %34, i8* %3, align 1
  %35 = load i32, i32* %4, align 4
  store i32 %35, i32* %5, align 4
  br label %36

36:                                               ; preds = %30, %21
  br label %37

37:                                               ; preds = %36
  %38 = load i32, i32* %4, align 4
  %39 = add nsw i32 %38, 1
  store i32 %39, i32* %4, align 4
  br label %15

40:                                               ; preds = %15
  store i32 0, i32* %4, align 4
  br label %41

41:                                               ; preds = %52, %40
  %42 = load i32, i32* %4, align 4
  %43 = load i32, i32* %5, align 4
  %44 = icmp sle i32 %42, %43
  br i1 %44, label %45, label %55

45:                                               ; preds = %41
  %46 = load i32, i32* %4, align 4
  %47 = sext i32 %46 to i64
  %48 = getelementptr inbounds [10 x i8], [10 x i8]* %1, i64 0, i64 %47
  %49 = load i8, i8* %48, align 1
  %50 = sext i8 %49 to i32
  %51 = call i32 (i8*, ...) @printf(i8* getelementptr inbounds ([3 x i8], [3 x i8]* @.str.1, i64 0, i64 0), i32 %50)
  br label %52

52:                                               ; preds = %45
  %53 = load i32, i32* %4, align 4
  %54 = add nsw i32 %53, 1
  store i32 %54, i32* %4, align 4
  br label %41

55:                                               ; preds = %41
  %56 = getelementptr inbounds [10 x i8], [10 x i8]* %2, i64 0, i64 0
  %57 = call i32 (i8*, ...) @printf(i8* getelementptr inbounds ([3 x i8], [3 x i8]* @.str, i64 0, i64 0), i8* %56)
  %58 = load i32, i32* %5, align 4
  %59 = add nsw i32 %58, 1
  store i32 %59, i32* %4, align 4
  br label %60

60:                                               ; preds = %73, %55
  %61 = load i32, i32* %4, align 4
  %62 = sext i32 %61 to i64
  %63 = getelementptr inbounds [10 x i8], [10 x i8]* %1, i64 0, i64 0
  %64 = call i64 @strlen(i8* %63) #3
  %65 = icmp ult i64 %62, %64
  br i1 %65, label %66, label %76

66:                                               ; preds = %60
  %67 = load i32, i32* %4, align 4
  %68 = sext i32 %67 to i64
  %69 = getelementptr inbounds [10 x i8], [10 x i8]* %1, i64 0, i64 %68
  %70 = load i8, i8* %69, align 1
  %71 = sext i8 %70 to i32
  %72 = call i32 (i8*, ...) @printf(i8* getelementptr inbounds ([3 x i8], [3 x i8]* @.str.1, i64 0, i64 0), i32 %71)
  br label %73

73:                                               ; preds = %66
  %74 = load i32, i32* %4, align 4
  %75 = add nsw i32 %74, 1
  store i32 %75, i32* %4, align 4
  br label %60

76:                                               ; preds = %60
  %77 = call i32 (i8*, ...) @printf(i8* getelementptr inbounds ([2 x i8], [2 x i8]* @.str.2, i64 0, i64 0))
  br label %6

78:                                               ; preds = %6
  ret void
}

declare dso_local i32 @__isoc99_scanf(i8*, ...) #1

; Function Attrs: nounwind readonly
declare dso_local i64 @strlen(i8*) #2

declare dso_local i32 @printf(i8*, ...) #1


!llvm.module.flags = !{!0}
!llvm.ident = !{!1}

!0 = !{i32 1, !"wchar_size", i32 4}
!1 = !{!"clang version 10.0.0-4ubuntu1 "}
